target datalayout = "e-m:e-p270:32:32-p271:32:32-p272:64:64-i64:64-i128:128-f80:128-n8:16:32:64-S128"
target triple = "x86_64-pc-linux-gnu"

%struct.regex_t = type { i32, i64, ptr, ptr }
%struct.WHLST = type { %struct.regex_t, ptr }

@wfrom = dso_local global ptr null, align 8
@wto = dso_local global ptr null, align 8

; Function Attrs: nounwind uwtable
define dso_local i32 @allowed(ptr noundef %0, i32 noundef %1) #0 {
  %3 = alloca i32, align 4
  %4 = alloca ptr, align 8
  %5 = alloca i32, align 4
  %6 = alloca ptr, align 8
  store ptr %0, ptr %4, align 8
  store i32 %1, ptr %5, align 4
  %7 = load i32, ptr %5, align 4
  %8 = icmp ne i32 %7, 0
  br i1 %8, label %9, label %11

9:                                                ; preds = %2
  %10 = load ptr, ptr @wfrom, align 8
  store ptr %10, ptr %6, align 8
  br label %13

11:                                               ; preds = %2
  %12 = load ptr, ptr @wto, align 8
  store ptr %12, ptr %6, align 8
  br label %13

13:                                               ; preds = %11, %9
  br label %14

14:                                               ; preds = %24, %13
  %15 = load ptr, ptr %6, align 8
  %16 = icmp ne ptr %15, null
  br i1 %16, label %17, label %28

17:                                               ; preds = %14
  %18 = load ptr, ptr %6, align 8
  %19 = getelementptr inbounds %struct.WHLST, ptr %18, i32 0, i32 0
  %20 = load ptr, ptr %4, align 8
  %21 = call i32 @cli_regexec(ptr noundef %19, ptr noundef %20, i64 noundef 0, ptr noundef null, i32 noundef 0)
  %22 = icmp ne i32 %21, 0
  br i1 %22, label %24, label %23

23:                                               ; preds = %17
  store i32 1, ptr %3, align 4
  br label %29

24:                                               ; preds = %17
  %25 = load ptr, ptr %6, align 8
  %26 = getelementptr inbounds %struct.WHLST, ptr %25, i32 0, i32 1
  %27 = load ptr, ptr %26, align 8
  store ptr %27, ptr %6, align 8
  br label %14

28:                                               ; preds = %14
  store i32 0, ptr %3, align 4
  br label %29

29:                                               ; preds = %28, %23
  %30 = load i32, ptr %3, align 4
  ret i32 %30
}