; Function Attrs: nounwind uwtable
define dso_local noundef i32 @allowed(ptr noundef %0, i32 noundef %1) local_unnamed_addr #0 {
  %.not = icmp eq i32 %1, 0
  %wto.val = load ptr, ptr @wto, align 8
  %wfrom.val = load ptr, ptr @wfrom, align 8
  %.18 = select i1 %.not, ptr %wto.val, ptr %wfrom.val
  %.not69 = icmp eq ptr %.18, null
  br i1 %.not69, label %._crit_edge, label %.lr.ph

3:                                                ; preds = %.lr.ph
  %4 = getelementptr inbounds i8, ptr %.110, i64 32
  %.1 = load ptr, ptr %4, align 8
  %.not6 = icmp eq ptr %.1, null
  br i1 %.not6, label %._crit_edge, label %.lr.ph

.lr.ph:                                           ; preds = %2, %3
  %.110 = phi ptr [ %.1, %3 ], [ %.18, %2 ]
  %5 = tail call i32 @cli_regexec(ptr noundef nonnull %.110, ptr noundef %0, i64 noundef 0, ptr noundef null, i32 noundef 0) #8
  %.not7 = icmp eq i32 %5, 0
  br i1 %.not7, label %._crit_edge, label %3

._crit_edge:                                      ; preds = %.lr.ph, %3, %2
  %.05 = phi i32 [ 0, %2 ], [ 0, %3 ], [ 1, %.lr.ph ]
  ret i32 %.05
}